Certificate:
    Data:
        Version: 3 (0x2)
        Serial Number:
            68:e7:d4:9e:09:57:15:59:d7:ae:ba:7f:7e:43:53:d0
    Signature Algorithm: sha256WithRSAEncryption
        Issuer: C=IN, O=Wrapdigi Inc., CN=Wrapdigi Authorized CA
        Validity
            Not Before: May  8 17:01:57 2017 GMT
            Not After : May 11 17:01:57 2017 GMT
        Subject: C=IN, ST=Maharashtra, O=ifm engineering, OU=IT, CN=boomer.com
        Subject Public Key Info:
            Public Key Algorithm: rsaEncryption
                Public-Key: (2048 bit)
                Modulus:
                    00:cf:6c:ae:59:6d:f4:74:bf:b9:e5:87:84:cb:6a:
                    7a:24:c4:96:5e:3f:eb:05:99:5a:6e:05:26:79:14:
                    9a:c4:a3:b4:be:42:82:7a:31:93:e5:0a:22:d7:9c:
                    25:04:e8:c1:22:13:16:4e:d1:a3:6a:ea:98:d4:69:
                    34:5b:b1:4a:56:a7:1f:8f:48:e6:46:1c:26:63:2d:
                    6f:6f:eb:86:14:0d:20:56:5b:d4:9a:44:ae:a0:b0:
                    48:b8:31:be:7f:7e:27:4f:25:42:dc:23:05:2b:53:
                    4c:dd:f2:d9:39:58:92:2e:e6:23:dd:0f:d4:bf:d3:
                    46:8a:66:ca:96:96:54:46:bc:c8:91:bf:76:13:b5:
                    05:46:74:f3:52:c8:1e:2b:00:49:1c:98:93:d4:f8:
                    e8:5e:b0:c0:11:82:57:e8:3f:23:4a:30:d1:bc:16:
                    dc:65:9b:f2:be:11:7c:b0:cc:18:5b:16:a9:b1:5b:
                    53:43:b0:fb:65:2c:5a:56:98:91:6d:8c:12:a2:90:
                    b7:3d:95:65:a5:a5:07:e2:ef:88:06:71:2d:02:b3:
                    ed:52:4b:27:86:b1:cf:e6:da:92:4c:54:f7:d1:f0:
                    a0:00:2d:1d:4b:bf:e1:b7:73:84:8e:e2:2e:22:f5:
                    b4:48:dd:bd:ab:d0:1a:6c:b7:fd:25:62:53:d8:ca:
                    fe:bb
                Exponent: 65537 (0x10001)
        X509v3 extensions:
            Authority Information Access: 
                CA Issuers - URI:http://sub-ca.example.com/sub-ca.crt
                OCSP - URI:http://ocsp.sub-ca.example.com:9081

            X509v3 Authority Key Identifier: 
                keyid:4A:0F:C0:7C:31:AE:E2:2E:51:BB:61:91:AD:B8:93:1B:FD:37:12:44

            X509v3 Basic Constraints: critical
                CA:FALSE
            X509v3 CRL Distribution Points: 

                Full Name:
                  URI:http://sub-ca.example.com/sub-ca.crl

            X509v3 Extended Key Usage: 
                TLS Web Client Authentication, TLS Web Server Authentication
            X509v3 Key Usage: critical
                Digital Signature, Key Encipherment
            X509v3 Subject Key Identifier: 
                F0:A7:C6:EA:7B:60:C5:85:46:45:17:42:D8:20:C4:6C:EE:34:C1:A4
    Signature Algorithm: sha256WithRSAEncryption
         3d:cf:53:37:a5:eb:a8:fc:00:40:15:22:be:c2:3d:c6:3e:7f:
         a8:fb:79:d9:5b:7f:3a:38:8d:93:c0:c9:ed:36:9c:32:1f:7b:
         38:46:42:5c:bf:b6:de:6a:e1:34:30:df:2f:9b:ae:91:ea:d6:
         2c:0d:26:9a:7b:6e:d2:fe:54:9a:03:23:70:00:fc:77:dc:20:
         f1:4a:5e:3a:65:68:22:5a:20:eb:48:77:a8:14:15:0c:dc:4d:
         d2:19:df:bf:47:51:80:dd:d1:78:29:03:ce:7a:f4:60:1d:65:
         f6:1d:db:cc:1d:d3:3d:d3:61:4b:c3:94:bb:56:48:15:63:ec:
         bf:eb:3b:22:7d:99:82:20:9a:0a:05:f2:56:4f:f4:7c:b5:f0:
         73:e3:e7:a1:b8:87:d6:8d:50:0b:c0:47:f2:60:59:2d:bc:14:
         ad:43:9a:41:7a:24:4d:3f:65:50:e6:46:ba:fa:52:2c:7d:f8:
         70:6b:f3:62:2c:b7:8f:13:9c:7c:a0:87:ce:d0:59:b6:bd:1b:
         ce:94:00:ae:e6:b5:05:aa:48:8b:4d:8c:29:a7:53:8c:fd:5f:
         4c:fa:4d:c8:b6:ac:3e:c3:a4:9d:09:b7:cd:1b:0a:57:e4:28:
         84:1d:bd:bd:b4:5d:ef:4e:ea:37:7e:0e:3a:04:01:55:cc:b4:
         ff:a7:05:c0:23:d9:15:da:41:09:4d:93:3c:e3:99:de:48:67:
         bc:39:a3:14:e8:31:56:78:83:02:e5:30:6b:b4:e6:39:58:c3:
         ca:3b:a7:7b:12:c6:7c:5a:ea:c8:b3:60:cf:f4:b1:91:a8:2f:
         fb:22:f1:d8:74:72:9a:9f:52:ae:5f:38:13:05:ce:2e:26:18:
         f8:91:f5:a9:58:01:d6:92:13:ad:ee:04:f4:c7:ec:92:6b:ec:
         1f:4e:37:56:a0:02:b4:cd:77:c8:3c:d2:20:f7:e2:e3:f7:2a:
         f6:78:2b:8a:89:fc:75:c8:87:2a:eb:d4:95:85:d1:75:51:41:
         9a:06:ed:0a:a7:6d:db:ef:e1:38:a5:0c:1a:4b:7c:fc:e9:f3:
         78:62:5f:df:37:2b:20:93:f5:11:20:89:8d:f4:2e:ef:5a:1a:
         d1:1c:2e:2c:bd:f9:43:ce:91:9d:1d:08:fa:a9:13:e0:a4:3e:
         2f:39:b5:b6:ae:f0:5d:8f:46:93:55:06:4f:3e:44:cd:ac:f2:
         24:dc:7a:3f:66:13:09:4c:b8:5e:86:98:60:20:fc:12:47:f7:
         37:a3:eb:9b:a0:e1:13:30:60:22:ff:1d:f1:24:ec:66:ea:ee:
         bb:8b:25:c2:5a:03:77:8b:57:e1:77:bb:ca:17:db:cc:20:31:
         f2:3e:40:d6:d2:dc:98:21
-----BEGIN CERTIFICATE-----
MIIFXDCCA0SgAwIBAgIQaOfUnglXFVnXrrp/fkNT0DANBgkqhkiG9w0BAQsFADBG
MQswCQYDVQQGEwJJTjEWMBQGA1UECgwNV3JhcGRpZ2kgSW5jLjEfMB0GA1UEAwwW
V3JhcGRpZ2kgQXV0aG9yaXplZCBDQTAeFw0xNzA1MDgxNzAxNTdaFw0xNzA1MTEx
NzAxNTdaMF8xCzAJBgNVBAYTAklOMRQwEgYDVQQIDAtNYWhhcmFzaHRyYTEYMBYG
A1UECgwPaWZtIGVuZ2luZWVyaW5nMQswCQYDVQQLDAJJVDETMBEGA1UEAwwKYm9v
bWVyLmNvbTCCASIwDQYJKoZIhvcNAQEBBQADggEPADCCAQoCggEBAM9srllt9HS/
ueWHhMtqeiTEll4/6wWZWm4FJnkUmsSjtL5Cgnoxk+UKItecJQTowSITFk7Ro2rq
mNRpNFuxSlanH49I5kYcJmMtb2/rhhQNIFZb1JpErqCwSLgxvn9+J08lQtwjBStT
TN3y2TlYki7mI90P1L/TRopmypaWVEa8yJG/dhO1BUZ081LIHisASRyYk9T46F6w
wBGCV+g/I0ow0bwW3GWb8r4RfLDMGFsWqbFbU0Ow+2UsWlaYkW2MEqKQtz2VZaWl
B+LviAZxLQKz7VJLJ4axz+bakkxU99HwoAAtHUu/4bdzhI7iLiL1tEjdvavQGmy3
/SViU9jK/rsCAwEAAaOCASswggEnMHEGCCsGAQUFBwEBBGUwYzAwBggrBgEFBQcw
AoYkaHR0cDovL3N1Yi1jYS5leGFtcGxlLmNvbS9zdWItY2EuY3J0MC8GCCsGAQUF
BzABhiNodHRwOi8vb2NzcC5zdWItY2EuZXhhbXBsZS5jb206OTA4MTAfBgNVHSME
GDAWgBRKD8B8Ma7iLlG7YZGtuJMb/TcSRDAMBgNVHRMBAf8EAjAAMDUGA1UdHwQu
MCwwKqAooCaGJGh0dHA6Ly9zdWItY2EuZXhhbXBsZS5jb20vc3ViLWNhLmNybDAd
BgNVHSUEFjAUBggrBgEFBQcDAgYIKwYBBQUHAwEwDgYDVR0PAQH/BAQDAgWgMB0G
A1UdDgQWBBTwp8bqe2DFhUZFF0LYIMRs7jTBpDANBgkqhkiG9w0BAQsFAAOCAgEA
Pc9TN6XrqPwAQBUivsI9xj5/qPt52Vt/OjiNk8DJ7TacMh97OEZCXL+23mrhNDDf
L5uukerWLA0mmntu0v5UmgMjcAD8d9wg8UpeOmVoIlog60h3qBQVDNxN0hnfv0dR
gN3ReCkDznr0YB1l9h3bzB3TPdNhS8OUu1ZIFWPsv+s7In2ZgiCaCgXyVk/0fLXw
c+PnobiH1o1QC8BH8mBZLbwUrUOaQXokTT9lUOZGuvpSLH34cGvzYiy3jxOcfKCH
ztBZtr0bzpQArua1BapIi02MKadTjP1fTPpNyLasPsOknQm3zRsKV+QohB29vbRd
707qN34OOgQBVcy0/6cFwCPZFdpBCU2TPOOZ3khnvDmjFOgxVniDAuUwa7TmOVjD
yjunexLGfFrqyLNgz/Sxkagv+yLx2HRymp9Srl84EwXOLiYY+JH1qVgB1pITre4E
9MfskmvsH043VqACtM13yDzSIPfi4/cq9ngrion8dciHKuvUlYXRdVFBmgbtCqdt
2+/hOKUMGkt8/OnzeGJf3zcrIJP1ESCJjfQu71oa0RwuLL35Q86RnR0I+qkT4KQ+
Lzm1tq7wXY9Gk1UGTz5EzazyJNx6P2YTCUy4XoaYYCD8Ekf3N6Prm6DhEzBgIv8d
8STsZuruu4slwloDd4tX4Xe7yhfbzCAx8j5A1tLcmCE=
-----END CERTIFICATE-----
