Certificate:
    Data:
        Version: 3 (0x2)
        Serial Number:
            68:e7:d4:9e:09:57:15:59:d7:ae:ba:7f:7e:43:53:ba
    Signature Algorithm: sha256WithRSAEncryption
        Issuer: C=IN, O=Wrapdigi Inc., CN=Wrapdigi Authorized CA
        Validity
            Not Before: Aug 13 18:56:04 2016 GMT
            Not After : Aug 13 18:56:04 2017 GMT
        Subject: C=IN, O=WrapDigi Inc., CN=wrapdigi.com
        Subject Public Key Info:
            Public Key Algorithm: rsaEncryption
                Public-Key: (2048 bit)
                Modulus:
                    00:c2:fe:9d:0d:15:79:1b:c6:f9:e3:c7:4b:27:91:
                    11:94:3c:98:b4:e7:87:6a:b4:80:47:66:22:3d:f5:
                    63:e5:02:74:af:85:9c:53:40:22:c3:fd:f0:b6:dc:
                    1a:d7:ed:8c:1e:23:33:f4:3e:4e:87:0e:7d:30:22:
                    f7:e2:5f:8b:35:24:e1:c7:c7:ba:32:37:91:f5:8b:
                    46:d1:0f:35:de:5a:b9:46:d7:fb:7d:ef:6f:25:3e:
                    95:db:9d:48:f6:4a:1c:8d:d4:d1:5d:f1:c4:12:7f:
                    16:da:98:d1:8c:f9:b0:8d:71:34:d8:7d:0b:16:d4:
                    f4:45:e7:79:61:11:11:8a:70:f4:3a:a6:d5:a8:b7:
                    e0:b4:bf:8c:23:17:65:de:e1:2d:09:79:6d:94:f7:
                    0a:4f:15:b1:1a:f4:63:c1:5b:24:1a:e2:71:b1:40:
                    8a:a1:08:38:9a:8e:5a:4e:e9:4c:aa:6c:f0:1a:15:
                    15:24:e0:e3:2d:46:7a:be:94:65:f1:1e:5b:2d:3e:
                    21:46:20:42:01:de:94:24:56:1d:f5:dd:e3:82:8a:
                    ac:d5:7b:38:b0:b7:6f:3a:b5:0c:0b:f3:ff:ea:25:
                    88:9a:99:2a:ae:f0:6b:43:4c:f6:33:fa:e0:1f:8d:
                    70:82:c3:0a:6f:f8:a3:94:dc:62:39:05:b3:10:7f:
                    15:f9
                Exponent: 65537 (0x10001)
        X509v3 extensions:
            Authority Information Access: 
                CA Issuers - URI:http://sub-ca.example.com/sub-ca.crt
                OCSP - URI:http://ocsp.sub-ca.example.com:9081

            X509v3 Authority Key Identifier: 
                keyid:4A:0F:C0:7C:31:AE:E2:2E:51:BB:61:91:AD:B8:93:1B:FD:37:12:44

            X509v3 Basic Constraints: critical
                CA:FALSE
            X509v3 CRL Distribution Points: 

                Full Name:
                  URI:http://sub-ca.example.com/sub-ca.crl

            X509v3 Extended Key Usage: 
                TLS Web Client Authentication, TLS Web Server Authentication
            X509v3 Key Usage: critical
                Digital Signature, Key Encipherment
            X509v3 Subject Key Identifier: 
                9B:CB:C2:E2:84:E6:2D:D5:51:91:73:D8:20:3A:DA:E7:FF:F2:0C:A5
    Signature Algorithm: sha256WithRSAEncryption
         10:5b:58:bd:48:6b:92:db:88:44:52:3a:01:f8:4d:a3:87:3e:
         1b:1d:0e:c4:dd:96:6c:a4:45:e9:74:e4:b3:e5:10:9a:3d:9c:
         8f:54:e5:9b:e4:e7:27:bf:04:6b:b7:07:b9:25:87:c3:10:82:
         04:2c:0f:4c:2a:dc:f0:4c:e9:8c:1a:65:8f:67:aa:c6:e7:41:
         2a:39:3e:37:90:7b:8a:ac:8b:a3:a3:ad:57:ed:35:83:72:72:
         2d:11:1e:73:bc:ce:b7:4f:49:2f:54:d4:54:7d:15:11:40:81:
         a0:b0:c0:de:2f:e8:72:87:76:48:f8:24:96:b9:fb:b7:6f:5c:
         95:e1:2c:f5:a9:65:cb:25:98:46:3b:62:74:04:e7:de:cb:80:
         ed:6a:d7:53:57:d3:b0:89:ef:89:f1:de:29:ae:c0:0b:ac:28:
         a9:1a:6e:06:0c:52:cb:33:c4:dd:5e:c4:a7:5e:d3:0d:3b:00:
         dc:40:5d:2a:b1:d3:9c:b5:4c:b5:f9:a2:f2:c2:99:35:2a:c2:
         06:93:59:24:aa:3a:62:2d:3d:1c:15:36:53:88:6b:2b:5c:09:
         62:7b:72:07:ad:4d:c6:70:62:0d:c1:75:d1:ab:72:e3:d8:98:
         91:2d:aa:4e:69:4b:b9:43:aa:d4:2d:08:4d:31:7f:e1:e5:ca:
         a8:88:a4:c1:77:3d:8f:aa:5a:b6:9f:2c:fb:f1:fa:73:b0:68:
         d4:37:b2:96:1e:ed:e7:0c:04:37:f6:e7:f1:e9:a8:4d:8f:38:
         f8:89:78:fa:74:f3:d4:e4:35:6d:28:9b:3e:4a:2f:b3:fa:aa:
         17:8b:44:11:61:07:29:ea:7a:79:c6:9a:1f:67:2b:cf:a3:c5:
         35:d9:83:b7:c5:e2:69:f0:da:e3:3c:84:19:12:61:92:65:5e:
         e5:ab:99:ba:ae:af:20:06:f0:dc:da:dd:c7:a9:c0:ed:49:07:
         0d:9f:c9:e0:4b:33:90:b6:bf:16:85:d7:f2:c1:20:d8:d2:20:
         03:19:5b:15:c1:0f:e5:05:51:d7:0c:4a:ad:d1:48:3f:d4:26:
         57:e3:04:a1:08:34:d7:36:9a:c4:27:d6:6a:5f:5f:bb:ee:b8:
         47:af:e2:47:13:7e:ac:5a:7c:a5:1d:30:f2:88:b6:fb:84:66:
         84:16:d0:0e:1f:1e:55:7e:ab:f7:c8:08:a0:7b:91:c4:b0:75:
         d5:4b:ce:6b:2d:24:69:85:af:4f:90:5d:bf:e0:f6:cb:91:1a:
         43:e8:d8:d5:53:c8:fc:1d:d8:01:d0:73:64:9d:47:b8:32:70:
         eb:ba:9f:f8:51:e6:29:0c:84:c3:07:cf:00:ff:d6:7f:6e:6f:
         41:b8:d2:69:3e:d5:8b:c0
-----BEGIN CERTIFICATE-----
MIIFOTCCAyGgAwIBAgIQaOfUnglXFVnXrrp/fkNTujANBgkqhkiG9w0BAQsFADBG
MQswCQYDVQQGEwJJTjEWMBQGA1UECgwNV3JhcGRpZ2kgSW5jLjEfMB0GA1UEAwwW
V3JhcGRpZ2kgQXV0aG9yaXplZCBDQTAeFw0xNjA4MTMxODU2MDRaFw0xNzA4MTMx
ODU2MDRaMDwxCzAJBgNVBAYTAklOMRYwFAYDVQQKDA1XcmFwRGlnaSBJbmMuMRUw
EwYDVQQDDAx3cmFwZGlnaS5jb20wggEiMA0GCSqGSIb3DQEBAQUAA4IBDwAwggEK
AoIBAQDC/p0NFXkbxvnjx0snkRGUPJi054dqtIBHZiI99WPlAnSvhZxTQCLD/fC2
3BrX7YweIzP0Pk6HDn0wIvfiX4s1JOHHx7oyN5H1i0bRDzXeWrlG1/t9728lPpXb
nUj2ShyN1NFd8cQSfxbamNGM+bCNcTTYfQsW1PRF53lhERGKcPQ6ptWot+C0v4wj
F2Xe4S0JeW2U9wpPFbEa9GPBWyQa4nGxQIqhCDiajlpO6UyqbPAaFRUk4OMtRnq+
lGXxHlstPiFGIEIB3pQkVh313eOCiqzVeziwt286tQwL8//qJYiamSqu8GtDTPYz
+uAfjXCCwwpv+KOU3GI5BbMQfxX5AgMBAAGjggErMIIBJzBxBggrBgEFBQcBAQRl
MGMwMAYIKwYBBQUHMAKGJGh0dHA6Ly9zdWItY2EuZXhhbXBsZS5jb20vc3ViLWNh
LmNydDAvBggrBgEFBQcwAYYjaHR0cDovL29jc3Auc3ViLWNhLmV4YW1wbGUuY29t
OjkwODEwHwYDVR0jBBgwFoAUSg/AfDGu4i5Ru2GRrbiTG/03EkQwDAYDVR0TAQH/
BAIwADA1BgNVHR8ELjAsMCqgKKAmhiRodHRwOi8vc3ViLWNhLmV4YW1wbGUuY29t
L3N1Yi1jYS5jcmwwHQYDVR0lBBYwFAYIKwYBBQUHAwIGCCsGAQUFBwMBMA4GA1Ud
DwEB/wQEAwIFoDAdBgNVHQ4EFgQUm8vC4oTmLdVRkXPYIDra5//yDKUwDQYJKoZI
hvcNAQELBQADggIBABBbWL1Ia5LbiERSOgH4TaOHPhsdDsTdlmykRel05LPlEJo9
nI9U5Zvk5ye/BGu3B7klh8MQggQsD0wq3PBM6YwaZY9nqsbnQSo5PjeQe4qsi6Oj
rVftNYNyci0RHnO8zrdPSS9U1FR9FRFAgaCwwN4v6HKHdkj4JJa5+7dvXJXhLPWp
ZcslmEY7YnQE597LgO1q11NX07CJ74nx3imuwAusKKkabgYMUsszxN1exKde0w07
ANxAXSqx05y1TLX5ovLCmTUqwgaTWSSqOmItPRwVNlOIaytcCWJ7cgetTcZwYg3B
ddGrcuPYmJEtqk5pS7lDqtQtCE0xf+HlyqiIpMF3PY+qWrafLPvx+nOwaNQ3spYe
7ecMBDf25/HpqE2POPiJePp089TkNW0omz5KL7P6qheLRBFhBynqennGmh9nK8+j
xTXZg7fF4mnw2uM8hBkSYZJlXuWrmbquryAG8Nza3cepwO1JBw2fyeBLM5C2vxaF
1/LBINjSIAMZWxXBD+UFUdcMSq3RSD/UJlfjBKEINNc2msQn1mpfX7vuuEev4kcT
fqxafKUdMPKItvuEZoQW0A4fHlV+q/fICKB7kcSwddVLzmstJGmFr0+QXb/g9suR
GkPo2NVTyPwd2AHQc2SdR7gycOu6n/hR5ikMhMMHzwD/1n9ub0G40mk+1YvA
-----END CERTIFICATE-----
